@smo:100,101,110,120

_ZN2al9LiveActor18initAfterPlacementEv
_ZN2al9LiveActor6appearEv
_ZN2al9LiveActor4killEv
_ZN2al9LiveActor14makeActorAliveEv
_ZN2al9LiveActor13makeActorDeadEv
_ZN2al9LiveActor8movementEv
_ZN2al9LiveActor8calcAnimEv
_ZNK2al9LiveActor4drawEv
_ZN2al9LiveActor12startClippedEv
_ZN2al9LiveActor10endClippedEv
_ZNK2al9LiveActor10getBaseMtxEv
_ZNK2al9LiveActor12getRailRiderEv
_ZNK2al9LiveActor17getSceneObjHolderEv
_ZNK2al9LiveActor20getCollisionDirectorEv
_ZNK2al9LiveActor18getAreaObjDirectorEv
_ZNK2al9LiveActor17getCameraDirectorEv
_ZN2al9LiveActor21initStageSwitchKeeperEv
_ZN2al9LiveActor14updateColliderEv
_ZThn24_N2al9LiveActor21initStageSwitchKeeperEv
_ZThn32_NK2al9LiveActor17getSceneObjHolderEv
_ZThn40_NK2al9LiveActor18getAreaObjDirectorEv
_ZThn48_NK2al9LiveActor17getCameraDirectorEv
_ZThn56_NK2al9LiveActor20getCollisionDirectorEv
_ZThn64_NK2al9LiveActor12getRailRiderEv
_ZTIN2al9LiveActorE

@smo:130

_ZN2al9LiveActor18initAfterPlacementEv = 0x0067f230
_ZN2al9LiveActor6appearEv = 0x0067f270
_ZN2al9LiveActor4killEv = 0x0067f3e0
_ZN2al9LiveActor14makeActorAliveEv = 0x0067f280
_ZN2al9LiveActor13makeActorDeadEv = 0x0067f3f0
_ZN2al9LiveActor8movementEv = 0x0067f550
_ZN2al9LiveActor8calcAnimEv = 0x0067f700
_ZNK2al9LiveActor4drawEv = 0x0067f7c0
_ZN2al9LiveActor12startClippedEv = 0x0067f7d0
_ZN2al9LiveActor10endClippedEv = 0x0067f920
_ZNK2al9LiveActor10getBaseMtxEv = 0x0067fab0
_ZNK2al9LiveActor12getRailRiderEv = 0x0067fae0
_ZNK2al9LiveActor17getSceneObjHolderEv = 0x0067fb30
_ZNK2al9LiveActor20getCollisionDirectorEv = 0x0067fb50
_ZNK2al9LiveActor18getAreaObjDirectorEv = 0x0067fb70
_ZNK2al9LiveActor17getCameraDirectorEv = 0x0067fb90
_ZN2al9LiveActor21initStageSwitchKeeperEv = 0x0067fcb0
_ZN2al9LiveActor14updateColliderEv = 0x0067fec0
_ZThn24_N2al9LiveActor21initStageSwitchKeeperEv = 0x0067fce0
_ZThn32_NK2al9LiveActor17getSceneObjHolderEv = 0x0067fb40
_ZThn40_NK2al9LiveActor18getAreaObjDirectorEv = 0x0067fb80
_ZThn48_NK2al9LiveActor17getCameraDirectorEv = 0x0067fba0
_ZThn56_NK2al9LiveActor20getCollisionDirectorEv = 0x0067fb60
_ZThn64_NK2al9LiveActor12getRailRiderEv = 0x0067fb00
_ZTIN2al9LiveActorE = 0x012f1970
